; Function Attrs: nounwind uwtable
define range(i32 0, 2) i32 @ossl_quic_tx_packetiser_set_cur_dcid(ptr noundef writeonly captures(none) %0, ptr noundef readonly captures(address_is_null) %1) local_unnamed_addr #3 {
  %3 = icmp eq ptr %1, null
  br i1 %3, label %4, label %5

4:                                                ; preds = %2
  tail call void @ERR_new() #10
  tail call void @ERR_set_debug(ptr noundef nonnull @.str, i32 noundef 679, ptr noundef nonnull @__func__.ossl_quic_tx_packetiser_set_cur_dcid) #10
  tail call void (i32, i32, ptr, ...) @ERR_set_error(i32 noundef 20, i32 noundef 786690, ptr noundef null) #10
  br label %7

5:                                                ; preds = %2
  %6 = getelementptr inbounds nuw i8, ptr %0, i64 21
  tail call void @llvm.memcpy.p0.p0.i64(ptr noundef nonnull align 1 dereferenceable(21) %6, ptr noundef nonnull align 1 dereferenceable(21) %1, i64 21, i1 false), !tbaa.struct !79
  br label %7

7:                                                ; preds = %5, %4
  %.0 = phi i32 [ 0, %4 ], [ 1, %5 ]
  ret i32 %.0
}